target datalayout = "e-m:e-p270:32:32-p271:32:32-p272:64:64-i64:64-i128:128-f80:128-n8:16:32:64-S128"
target triple = "x86_64-pc-linux-gnu"

%struct._zval_struct = type { %union._zend_value, %union.anon.0, %union.anon.3 }
%union._zend_value = type { i64 }
%union.anon.0 = type { i32 }
%union.anon.3 = type { i32 }
%struct._zend_refcounted_h = type { i32, %union.anon }
%union.anon = type { i32 }
%struct._zend_object_handlers = type { i32, ptr, ptr, ptr, ptr, ptr, ptr, ptr, ptr, ptr, ptr, ptr, ptr, ptr, ptr, ptr, ptr, ptr, ptr, ptr, ptr, ptr, ptr, ptr, ptr }
%struct._php_date_obj = type { ptr, %struct._zend_object }
%struct._zend_object = type { %struct._zend_refcounted_h, i32, ptr, ptr, ptr, [1 x %struct._zval_struct] }
%struct._timelib_time = type { i64, i64, i64, i64, i64, i64, i64, i32, ptr, ptr, i32, %struct._timelib_rel_time, i64, i32, i32, i32, i32, i32, i32, i32, i32, i32 }
%struct._timelib_rel_time = type { i64, i64, i64, i64, i64, i64, i64, i32, i32, i32, i32, i64, %struct.anon.4, i32, i32 }
%struct.anon.4 = type { i32, i64 }

@date_ce_date_object_error = hidden global ptr null, align 8
@.str.320 = private unnamed_addr constant [69 x i8] c"Trying to compare an incomplete DateTime or DateTimeImmutable object\00", align 1

; Function Attrs: nounwind uwtable
define internal ptr @php_date_obj_from_obj(ptr noundef %0) #0 {
  %2 = alloca ptr, align 8
  store ptr %0, ptr %2, align 8
  %3 = load ptr, ptr %2, align 8
  %4 = getelementptr inbounds i8, ptr %3, i64 -8
  ret ptr %4
}

; Function Attrs: nounwind uwtable
define internal i32 @date_object_compare_date(ptr noundef %0, ptr noundef %1) #0 {
  %3 = alloca ptr, align 8
  %4 = alloca ptr, align 8
  %5 = alloca i32, align 4
  %6 = alloca ptr, align 8
  %7 = alloca ptr, align 8
  %8 = alloca ptr, align 8
  %9 = alloca ptr, align 8
  store ptr %0, ptr %6, align 8
  store ptr %1, ptr %7, align 8
  %10 = load ptr, ptr %6, align 8
  store ptr %10, ptr %3, align 8
  %11 = load ptr, ptr %3, align 8
  %12 = getelementptr inbounds %struct._zval_struct, ptr %11, i32 0, i32 1
  %13 = load i8, ptr %12, align 8
  %14 = zext i8 %13 to i32
  %15 = icmp ne i32 %14, 8
  br i1 %15, label %39, label %16

16:                                               ; preds = %2
  %17 = load ptr, ptr %7, align 8
  store ptr %17, ptr %4, align 8
  %18 = load ptr, ptr %4, align 8
  %19 = getelementptr inbounds %struct._zval_struct, ptr %18, i32 0, i32 1
  %20 = load i8, ptr %19, align 8
  %21 = zext i8 %20 to i32
  %22 = icmp ne i32 %21, 8
  br i1 %22, label %39, label %23

23:                                               ; preds = %16
  %24 = load ptr, ptr %6, align 8
  %25 = getelementptr inbounds %struct._zval_struct, ptr %24, i32 0, i32 0
  %26 = load ptr, ptr %25, align 8
  %27 = getelementptr inbounds %struct._zend_object, ptr %26, i32 0, i32 3
  %28 = load ptr, ptr %27, align 8
  %29 = getelementptr inbounds %struct._zend_object_handlers, ptr %28, i32 0, i32 23
  %30 = load ptr, ptr %29, align 8
  %31 = load ptr, ptr %7, align 8
  %32 = getelementptr inbounds %struct._zval_struct, ptr %31, i32 0, i32 0
  %33 = load ptr, ptr %32, align 8
  %34 = getelementptr inbounds %struct._zend_object, ptr %33, i32 0, i32 3
  %35 = load ptr, ptr %34, align 8
  %36 = getelementptr inbounds %struct._zend_object_handlers, ptr %35, i32 0, i32 23
  %37 = load ptr, ptr %36, align 8
  %38 = icmp ne ptr %30, %37
  br i1 %38, label %39, label %43

39:                                               ; preds = %23, %16, %2
  %40 = load ptr, ptr %6, align 8
  %41 = load ptr, ptr %7, align 8
  %42 = call i32 @zend_std_compare_objects(ptr noundef %40, ptr noundef %41)
  store i32 %42, ptr %5, align 4
  br label %103

43:                                               ; preds = %23
  %44 = load ptr, ptr %6, align 8
  %45 = getelementptr inbounds %struct._zval_struct, ptr %44, i32 0, i32 0
  %46 = load ptr, ptr %45, align 8
  %47 = call ptr @php_date_obj_from_obj(ptr noundef %46)
  store ptr %47, ptr %8, align 8
  %48 = load ptr, ptr %7, align 8
  %49 = getelementptr inbounds %struct._zval_struct, ptr %48, i32 0, i32 0
  %50 = load ptr, ptr %49, align 8
  %51 = call ptr @php_date_obj_from_obj(ptr noundef %50)
  store ptr %51, ptr %9, align 8
  %52 = load ptr, ptr %8, align 8
  %53 = getelementptr inbounds %struct._php_date_obj, ptr %52, i32 0, i32 0
  %54 = load ptr, ptr %53, align 8
  %55 = icmp ne ptr %54, null
  br i1 %55, label %56, label %61

56:                                               ; preds = %43
  %57 = load ptr, ptr %9, align 8
  %58 = getelementptr inbounds %struct._php_date_obj, ptr %57, i32 0, i32 0
  %59 = load ptr, ptr %58, align 8
  %60 = icmp ne ptr %59, null
  br i1 %60, label %63, label %61

61:                                               ; preds = %56, %43
  %62 = load ptr, ptr @date_ce_date_object_error, align 8
  call void (ptr, ptr, ...) @zend_throw_error(ptr noundef %62, ptr noundef @.str.320)
  store i32 1, ptr %5, align 4
  br label %103

63:                                               ; preds = %56
  %64 = load ptr, ptr %8, align 8
  %65 = getelementptr inbounds %struct._php_date_obj, ptr %64, i32 0, i32 0
  %66 = load ptr, ptr %65, align 8
  %67 = getelementptr inbounds %struct._timelib_time, ptr %66, i32 0, i32 18
  %68 = load i32, ptr %67, align 4
  %69 = icmp ne i32 %68, 0
  br i1 %69, label %79, label %70

70:                                               ; preds = %63
  %71 = load ptr, ptr %8, align 8
  %72 = getelementptr inbounds %struct._php_date_obj, ptr %71, i32 0, i32 0
  %73 = load ptr, ptr %72, align 8
  %74 = load ptr, ptr %8, align 8
  %75 = getelementptr inbounds %struct._php_date_obj, ptr %74, i32 0, i32 0
  %76 = load ptr, ptr %75, align 8
  %77 = getelementptr inbounds %struct._timelib_time, ptr %76, i32 0, i32 9
  %78 = load ptr, ptr %77, align 8
  call void @timelib_update_ts(ptr noundef %73, ptr noundef %78)
  br label %79

79:                                               ; preds = %70, %63
  %80 = load ptr, ptr %9, align 8
  %81 = getelementptr inbounds %struct._php_date_obj, ptr %80, i32 0, i32 0
  %82 = load ptr, ptr %81, align 8
  %83 = getelementptr inbounds %struct._timelib_time, ptr %82, i32 0, i32 18
  %84 = load i32, ptr %83, align 4
  %85 = icmp ne i32 %84, 0
  br i1 %85, label %95, label %86

86:                                               ; preds = %79
  %87 = load ptr, ptr %9, align 8
  %88 = getelementptr inbounds %struct._php_date_obj, ptr %87, i32 0, i32 0
  %89 = load ptr, ptr %88, align 8
  %90 = load ptr, ptr %9, align 8
  %91 = getelementptr inbounds %struct._php_date_obj, ptr %90, i32 0, i32 0
  %92 = load ptr, ptr %91, align 8
  %93 = getelementptr inbounds %struct._timelib_time, ptr %92, i32 0, i32 9
  %94 = load ptr, ptr %93, align 8
  call void @timelib_update_ts(ptr noundef %89, ptr noundef %94)
  br label %95

95:                                               ; preds = %86, %79
  %96 = load ptr, ptr %8, align 8
  %97 = getelementptr inbounds %struct._php_date_obj, ptr %96, i32 0, i32 0
  %98 = load ptr, ptr %97, align 8
  %99 = load ptr, ptr %9, align 8
  %100 = getelementptr inbounds %struct._php_date_obj, ptr %99, i32 0, i32 0
  %101 = load ptr, ptr %100, align 8
  %102 = call i32 @timelib_time_compare(ptr noundef %98, ptr noundef %101)
  store i32 %102, ptr %5, align 4
  br label %103

103:                                              ; preds = %95, %61, %39
  %104 = load i32, ptr %5, align 4
  ret i32 %104
}