; Function Attrs: nounwind uwtable
define internal i32 @date_object_compare_date(ptr noundef %0, ptr noundef %1) #0 {
  %3 = getelementptr inbounds i8, ptr %0, i64 8
  %4 = load i8, ptr %3, align 8
  %.not = icmp eq i8 %4, 8
  br i1 %.not, label %5, label %19

5:                                                ; preds = %2
  %6 = getelementptr inbounds i8, ptr %1, i64 8
  %7 = load i8, ptr %6, align 8
  %.not21 = icmp eq i8 %7, 8
  br i1 %.not21, label %8, label %19

8:                                                ; preds = %5
  %9 = load ptr, ptr %0, align 8
  %10 = getelementptr inbounds i8, ptr %9, i64 24
  %11 = load ptr, ptr %10, align 8
  %12 = getelementptr inbounds i8, ptr %11, i64 184
  %13 = load ptr, ptr %12, align 8
  %14 = load ptr, ptr %1, align 8
  %15 = getelementptr inbounds i8, ptr %14, i64 24
  %16 = load ptr, ptr %15, align 8
  %17 = getelementptr inbounds i8, ptr %16, i64 184
  %18 = load ptr, ptr %17, align 8
  %.not22 = icmp eq ptr %13, %18
  br i1 %.not22, label %21, label %19

19:                                               ; preds = %8, %5, %2
  %20 = tail call i32 @zend_std_compare_objects(ptr noundef nonnull %0, ptr noundef %1) #25
  br label %46

21:                                               ; preds = %8
  %22 = getelementptr inbounds i8, ptr %9, i64 -8
  %23 = getelementptr inbounds i8, ptr %14, i64 -8
  %24 = load ptr, ptr %22, align 8
  %.not23 = icmp eq ptr %24, null
  br i1 %.not23, label %27, label %25

25:                                               ; preds = %21
  %26 = load ptr, ptr %23, align 8
  %.not24 = icmp eq ptr %26, null
  br i1 %.not24, label %27, label %29

27:                                               ; preds = %25, %21
  %28 = load ptr, ptr @date_ce_date_object_error, align 8
  tail call void (ptr, ptr, ...) @zend_throw_error(ptr noundef %28, ptr noundef nonnull @.str.320) #25
  br label %46

29:                                               ; preds = %25
  %30 = getelementptr inbounds i8, ptr %24, i64 220
  %31 = load i32, ptr %30, align 4
  %.not25 = icmp eq i32 %31, 0
  br i1 %.not25, label %32, label %35

32:                                               ; preds = %29
  %33 = getelementptr inbounds i8, ptr %24, i64 72
  %34 = load ptr, ptr %33, align 8
  tail call void @timelib_update_ts(ptr noundef nonnull %24, ptr noundef %34) #25
  %.pre = load ptr, ptr %23, align 8
  br label %35

35:                                               ; preds = %32, %29
  %36 = phi ptr [ %.pre, %32 ], [ %26, %29 ]
  %37 = getelementptr inbounds i8, ptr %36, i64 220
  %38 = load i32, ptr %37, align 4
  %.not26 = icmp eq i32 %38, 0
  br i1 %.not26, label %39, label %42

39:                                               ; preds = %35
  %40 = getelementptr inbounds i8, ptr %36, i64 72
  %41 = load ptr, ptr %40, align 8
  tail call void @timelib_update_ts(ptr noundef nonnull %36, ptr noundef %41) #25
  %.pre27 = load ptr, ptr %23, align 8
  br label %42

42:                                               ; preds = %39, %35
  %43 = phi ptr [ %.pre27, %39 ], [ %36, %35 ]
  %44 = load ptr, ptr %22, align 8
  %45 = tail call i32 @timelib_time_compare(ptr noundef %44, ptr noundef %43) #25
  br label %46

46:                                               ; preds = %42, %27, %19
  %.0 = phi i32 [ %20, %19 ], [ %45, %42 ], [ 1, %27 ]
  ret i32 %.0
}